target datalayout = "e-m:e-p270:32:32-p271:32:32-p272:64:64-i64:64-i128:128-f80:128-n8:16:32:64-S128"
target triple = "x86_64-pc-linux-gnu"

%struct.malloc_state = type { i32, i32, i64, i64, ptr, ptr, ptr, i64, i64, i64, [66 x ptr], [32 x ptr], i64, i64, i64, i32, i32, %struct.malloc_segment, ptr, i64 }
%struct.malloc_segment = type { ptr, i64, ptr, i32 }
%struct.malloc_chunk = type { i64, i64, ptr, ptr }
%struct.multialloc_it_impl = type { ptr }
%struct.boost_cont_memchain_impl = type { i64, %struct.multialloc_node_impl, ptr }
%struct.multialloc_node_impl = type { ptr }

@_gm_ = internal global %struct.malloc_state zeroinitializer, align 8
@s_allocated_memory = internal global i64 0, align 8

; Function Attrs: nounwind uwtable
define internal i32 @spin_acquire_lock(ptr noundef %0) #0 {
  %2 = alloca ptr, align 8
  %3 = alloca i32, align 4
  store ptr %0, ptr %2, align 8, !tbaa !16
  call void @llvm.lifetime.start.p0(i64 4, ptr %3) #9
  store i32 0, ptr %3, align 4, !tbaa !14
  br label %4

4:                                                ; preds = %21, %1
  %5 = load ptr, ptr %2, align 8, !tbaa !16
  %6 = load volatile i32, ptr %5, align 4, !tbaa !14
  %7 = icmp ne i32 %6, 0
  br i1 %7, label %12, label %8

8:                                                ; preds = %4
  %9 = load ptr, ptr %2, align 8, !tbaa !16
  %10 = atomicrmw xchg ptr %9, i32 1 seq_cst, align 4
  %11 = icmp ne i32 %10, 0
  br label %12

12:                                               ; preds = %8, %4
  %13 = phi i1 [ true, %4 ], [ %11, %8 ]
  br i1 %13, label %14, label %22

14:                                               ; preds = %12
  %15 = load i32, ptr %3, align 4, !tbaa !14
  %16 = add nsw i32 %15, 1
  store i32 %16, ptr %3, align 4, !tbaa !14
  %17 = and i32 %16, 63
  %18 = icmp eq i32 %17, 0
  br i1 %18, label %19, label %21

19:                                               ; preds = %14
  %20 = call i32 @sched_yield() #9
  br label %21

21:                                               ; preds = %19, %14
  br label %4, !llvm.loop !34

22:                                               ; preds = %12
  call void @llvm.lifetime.end.p0(i64 4, ptr %3) #9
  ret i32 0
}

; Function Attrs: nounwind uwtable
define internal void @internal_multialloc_free(ptr noundef %0, ptr noundef %1) #0 {
  %3 = alloca ptr, align 8
  %4 = alloca ptr, align 8
  %5 = alloca %struct.multialloc_it_impl, align 8
  %6 = alloca ptr, align 8
  store ptr %0, ptr %3, align 8, !tbaa !16
  store ptr %1, ptr %4, align 8, !tbaa !16
  %7 = load ptr, ptr %3, align 8, !tbaa !16
  %8 = getelementptr inbounds nuw %struct.malloc_state, ptr %7, i32 0, i32 15
  %9 = load i32, ptr %8, align 8, !tbaa !10
  %10 = and i32 %9, 2
  %11 = icmp ne i32 %10, 0
  br i1 %11, label %12, label %23

12:                                               ; preds = %2
  %13 = load ptr, ptr %3, align 8, !tbaa !16
  %14 = getelementptr inbounds nuw %struct.malloc_state, ptr %13, i32 0, i32 16
  %15 = atomicrmw xchg ptr %14, i32 1 seq_cst, align 4
  %16 = icmp ne i32 %15, 0
  br i1 %16, label %17, label %22

17:                                               ; preds = %12
  %18 = load ptr, ptr %3, align 8, !tbaa !16
  %19 = getelementptr inbounds nuw %struct.malloc_state, ptr %18, i32 0, i32 16
  %20 = call i32 @spin_acquire_lock(ptr noundef %19)
  %21 = icmp ne i32 %20, 0
  br i1 %21, label %63, label %24

22:                                               ; preds = %12
  br i1 false, label %63, label %24

23:                                               ; preds = %2
  br i1 false, label %63, label %24

24:                                               ; preds = %23, %22, %17
  call void @llvm.lifetime.start.p0(i64 8, ptr %5) #9
  %25 = getelementptr inbounds nuw %struct.multialloc_it_impl, ptr %5, i32 0, i32 0
  %26 = load ptr, ptr %4, align 8, !tbaa !16
  %27 = getelementptr inbounds nuw %struct.boost_cont_memchain_impl, ptr %26, i32 0, i32 1
  %28 = getelementptr inbounds nuw %struct.multialloc_node_impl, ptr %27, i32 0, i32 0
  %29 = load ptr, ptr %28, align 8, !tbaa !75
  store ptr %29, ptr %25, align 8, !tbaa !78
  br label %30

30:                                               ; preds = %36, %24
  %31 = getelementptr inbounds nuw %struct.multialloc_it_impl, ptr %5, i32 0, i32 0
  %32 = load ptr, ptr %31, align 8, !tbaa !78
  %33 = icmp ne ptr %32, null
  %34 = xor i1 %33, true
  %35 = xor i1 %34, true
  br i1 %35, label %36, label %53

36:                                               ; preds = %30
  call void @llvm.lifetime.start.p0(i64 8, ptr %6) #9
  %37 = getelementptr inbounds nuw %struct.multialloc_it_impl, ptr %5, i32 0, i32 0
  %38 = load ptr, ptr %37, align 8, !tbaa !78
  store ptr %38, ptr %6, align 8, !tbaa !16
  %39 = getelementptr inbounds nuw %struct.multialloc_it_impl, ptr %5, i32 0, i32 0
  %40 = load ptr, ptr %39, align 8, !tbaa !78
  %41 = getelementptr inbounds nuw %struct.multialloc_node_impl, ptr %40, i32 0, i32 0
  %42 = load ptr, ptr %41, align 8, !tbaa !80
  %43 = getelementptr inbounds nuw %struct.multialloc_it_impl, ptr %5, i32 0, i32 0
  store ptr %42, ptr %43, align 8, !tbaa !78
  %44 = load ptr, ptr %6, align 8, !tbaa !16
  %45 = getelementptr inbounds i8, ptr %44, i64 -16
  %46 = getelementptr inbounds nuw %struct.malloc_chunk, ptr %45, i32 0, i32 1
  %47 = load i64, ptr %46, align 8, !tbaa !21
  %48 = and i64 %47, -8
  %49 = load i64, ptr @s_allocated_memory, align 8, !tbaa !3
  %50 = sub i64 %49, %48
  store i64 %50, ptr @s_allocated_memory, align 8, !tbaa !3
  %51 = load ptr, ptr %3, align 8, !tbaa !16
  %52 = load ptr, ptr %6, align 8, !tbaa !16
  call void @mspace_free_lockless(ptr noundef %51, ptr noundef %52)
  call void @llvm.lifetime.end.p0(i64 8, ptr %6) #9
  br label %30, !llvm.loop !103

53:                                               ; preds = %30
  %54 = load ptr, ptr %3, align 8, !tbaa !16
  %55 = getelementptr inbounds nuw %struct.malloc_state, ptr %54, i32 0, i32 15
  %56 = load i32, ptr %55, align 8, !tbaa !10
  %57 = and i32 %56, 2
  %58 = icmp ne i32 %57, 0
  br i1 %58, label %59, label %62

59:                                               ; preds = %53
  %60 = load ptr, ptr %3, align 8, !tbaa !16
  %61 = getelementptr inbounds nuw %struct.malloc_state, ptr %60, i32 0, i32 16
  store atomic i32 0, ptr %61 release, align 4
  br label %62

62:                                               ; preds = %59, %53
  call void @llvm.lifetime.end.p0(i64 8, ptr %5) #9
  br label %63

63:                                               ; preds = %62, %23, %22, %17
  ret void
}

; Function Attrs: nounwind uwtable
define hidden void @boost_cont_multidealloc(ptr noundef %0) #0 {
  %2 = alloca ptr, align 8
  %3 = alloca ptr, align 8
  store ptr %0, ptr %2, align 8, !tbaa !16
  call void @llvm.lifetime.start.p0(i64 8, ptr %3) #9
  store ptr @_gm_, ptr %3, align 8, !tbaa !16
  %4 = load ptr, ptr %3, align 8, !tbaa !16
  %5 = load ptr, ptr %2, align 8, !tbaa !16
  call void @internal_multialloc_free(ptr noundef %4, ptr noundef %5)
  call void @llvm.lifetime.end.p0(i64 8, ptr %3) #9
  ret void
}