; Function Attrs: nounwind uwtable
define hidden void @boost_cont_multidealloc(ptr nocapture noundef readonly %0) local_unnamed_addr #0 {
  %2 = load i32, ptr getelementptr inbounds nuw (i8, ptr @_gm_, i64 880), align 8, !tbaa !9
  %3 = and i32 %2, 2
  %.not.i = icmp eq i32 %3, 0
  br i1 %.not.i, label %spin_acquire_lock.exit.i, label %4

4:                                                ; preds = %1
  %5 = atomicrmw xchg ptr getelementptr inbounds nuw (i8, ptr @_gm_, i64 884), i32 1 seq_cst, align 4
  %.not11.i = icmp eq i32 %5, 0
  br i1 %.not11.i, label %spin_acquire_lock.exit.i, label %.preheader.i

.preheader.i:                                     ; preds = %4, %.preheader.i.backedge
  %.0.i.i = phi i32 [ %9, %.preheader.i.backedge ], [ 0, %4 ]
  %6 = load volatile i32, ptr getelementptr inbounds nuw (i8, ptr @_gm_, i64 884), align 4, !tbaa !13
  %.not.i.i = icmp eq i32 %6, 0
  br i1 %.not.i.i, label %7, label %.critedge.i.i

7:                                                ; preds = %.preheader.i
  %8 = atomicrmw xchg ptr getelementptr inbounds nuw (i8, ptr @_gm_, i64 884), i32 1 seq_cst, align 4
  %.not2.i.i = icmp eq i32 %8, 0
  br i1 %.not2.i.i, label %spin_acquire_lock.exit.i, label %.critedge.i.i

.critedge.i.i:                                    ; preds = %7, %.preheader.i
  %9 = add nuw nsw i32 %.0.i.i, 1
  %10 = and i32 %9, 63
  %11 = icmp eq i32 %10, 0
  br i1 %11, label %12, label %.preheader.i.backedge

12:                                               ; preds = %.critedge.i.i
  %13 = tail call i32 @sched_yield() #17
  br label %.preheader.i.backedge

.preheader.i.backedge:                            ; preds = %12, %.critedge.i.i
  br label %.preheader.i, !llvm.loop !14

spin_acquire_lock.exit.i:                         ; preds = %7, %4, %1
  %14 = getelementptr inbounds nuw i8, ptr %0, i64 8
  %15 = load ptr, ptr %14, align 8, !tbaa !81
  %.not121.i = icmp eq ptr %15, null
  br i1 %.not121.i, label %._crit_edge.i, label %.lr.ph.i

.lr.ph.i:                                         ; preds = %spin_acquire_lock.exit.i, %.lr.ph.i
  %.sroa.0.02.i = phi ptr [ %16, %.lr.ph.i ], [ %15, %spin_acquire_lock.exit.i ]
  %16 = load ptr, ptr %.sroa.0.02.i, align 8, !tbaa !84
  %17 = getelementptr inbounds i8, ptr %.sroa.0.02.i, i64 -8
  %18 = load i64, ptr %17, align 8, !tbaa !23
  %19 = and i64 %18, -8
  %20 = load i64, ptr @s_allocated_memory, align 8, !tbaa !36
  %21 = sub i64 %20, %19
  store i64 %21, ptr @s_allocated_memory, align 8, !tbaa !36
  tail call fastcc void @mspace_free_lockless(ptr noundef nonnull %.sroa.0.02.i)
  %.not12.i = icmp eq ptr %16, null
  br i1 %.not12.i, label %._crit_edge.i, label %.lr.ph.i, !llvm.loop !107

._crit_edge.i:                                    ; preds = %.lr.ph.i, %spin_acquire_lock.exit.i
  %22 = load i32, ptr getelementptr inbounds nuw (i8, ptr @_gm_, i64 880), align 8, !tbaa !9
  %23 = and i32 %22, 2
  %.not13.i = icmp eq i32 %23, 0
  br i1 %.not13.i, label %internal_multialloc_free.exit, label %24

24:                                               ; preds = %._crit_edge.i
  store atomic i32 0, ptr getelementptr inbounds nuw (i8, ptr @_gm_, i64 884) release, align 4
  br label %internal_multialloc_free.exit

internal_multialloc_free.exit:                    ; preds = %._crit_edge.i, %24
  ret void
}